target datalayout = "e-m:e-p270:32:32-p271:32:32-p272:64:64-i64:64-i128:128-f80:128-n8:16:32:64-S128"
target triple = "x86_64-pc-linux-gnu"

; Function Attrs: nounwind uwtable
define i32 @Ptngc_find_magic_index(i32 noundef %0) #0 {
  %2 = alloca i32, align 4
  %3 = alloca i32, align 4
  store i32 %0, ptr %2, align 4
  %4 = load i32, ptr %2, align 4
  %5 = load i32, ptr getelementptr inbounds ([92 x i32], ptr @magic, i64 0, i64 23), align 4
  %6 = icmp ugt i32 %4, %5
  br i1 %6, label %7, label %14

7:                                                ; preds = %1
  %8 = load i32, ptr %2, align 4
  %9 = load i32, ptr getelementptr inbounds ([92 x i32], ptr @magic, i64 0, i64 46), align 8
  %10 = icmp ugt i32 %8, %9
  br i1 %10, label %11, label %12

11:                                               ; preds = %7
  store i32 47, ptr %3, align 4
  br label %13

12:                                               ; preds = %7
  store i32 24, ptr %3, align 4
  br label %13

13:                                               ; preds = %12, %11
  br label %15

14:                                               ; preds = %1
  store i32 0, ptr %3, align 4
  br label %15

15:                                               ; preds = %14, %13
  br label %16

16:                                               ; preds = %23, %15
  %17 = load i32, ptr %3, align 4
  %18 = sext i32 %17 to i64
  %19 = getelementptr inbounds [92 x i32], ptr @magic, i64 0, i64 %18
  %20 = load i32, ptr %19, align 4
  %21 = load i32, ptr %2, align 4
  %22 = icmp ule i32 %20, %21
  br i1 %22, label %23, label %26

23:                                               ; preds = %16
  %24 = load i32, ptr %3, align 4
  %25 = add nsw i32 %24, 1
  store i32 %25, ptr %3, align 4
  br label %16, !llvm.loop !4

26:                                               ; preds = %16
  %27 = load i32, ptr %3, align 4
  ret i32 %27
}