; Function Attrs: nofree norecurse nosync nounwind memory(none) uwtable
define i32 @Ptngc_find_magic_index(i32 noundef %0) local_unnamed_addr #1 {
  %2 = icmp ugt i32 %0, 512
  %3 = icmp ugt i32 %0, 104031
  %. = select i1 %3, i64 47, i64 24
  %.0 = select i1 %2, i64 %., i64 0
  br label %4

4:                                                ; preds = %4, %1
  %indvars.iv = phi i64 [ %indvars.iv.next, %4 ], [ %.0, %1 ]
  %5 = getelementptr inbounds [92 x i32], ptr @magic, i64 0, i64 %indvars.iv
  %6 = load i32, ptr %5, align 4
  %.not = icmp ugt i32 %6, %0
  %indvars.iv.next = add nuw nsw i64 %indvars.iv, 1
  br i1 %.not, label %7, label %4, !llvm.loop !4

7:                                                ; preds = %4
  %8 = trunc nuw nsw i64 %indvars.iv to i32
  ret i32 %8
}